target datalayout = "e-m:e-p270:32:32-p271:32:32-p272:64:64-i64:64-i128:128-f80:128-n8:16:32:64-S128"
target triple = "x86_64-pc-linux-gnu"

%struct.mbedtls_ssl_ciphersuite_t = type { i32, ptr, i8, i8, i8, i8, i16, i16 }
%struct.mbedtls_cipher_info_t = type { ptr, i32 }

; Function Attrs: inlinehint nounwind uwtable
define internal i64 @mbedtls_cipher_info_get_key_bitlen(ptr noundef %0) #4 {
  %2 = alloca i64, align 8
  %3 = alloca ptr, align 8
  store ptr %0, ptr %3, align 8, !tbaa !23
  %4 = load ptr, ptr %3, align 8, !tbaa !23
  %5 = icmp eq ptr %4, null
  br i1 %5, label %6, label %7

6:                                                ; preds = %1
  store i64 0, ptr %2, align 8
  br label %15

7:                                                ; preds = %1
  %8 = load ptr, ptr %3, align 8, !tbaa !23
  %9 = getelementptr inbounds nuw %struct.mbedtls_cipher_info_t, ptr %8, i32 0, i32 1
  %10 = load i32, ptr %9, align 8
  %11 = lshr i32 %10, 8
  %12 = and i32 %11, 15
  %13 = zext i32 %12 to i64
  %14 = shl i64 %13, 6
  store i64 %14, ptr %2, align 8
  br label %15

15:                                               ; preds = %7, %6
  %16 = load i64, ptr %2, align 8
  ret i64 %16
}

; Function Attrs: nounwind uwtable
define hidden i64 @mbedtls_ssl_ciphersuite_get_cipher_key_bitlen(ptr noundef %0) #0 {
  %2 = alloca ptr, align 8
  %3 = alloca ptr, align 8
  store ptr %0, ptr %2, align 8, !tbaa !10
  call void @llvm.lifetime.start.p0(i64 8, ptr %3) #5
  %4 = load ptr, ptr %2, align 8, !tbaa !10
  %5 = getelementptr inbounds nuw %struct.mbedtls_ssl_ciphersuite_t, ptr %4, i32 0, i32 2
  %6 = load i8, ptr %5, align 8, !tbaa !22
  %7 = zext i8 %6 to i32
  %8 = call ptr @mbedtls_cipher_info_from_type(i32 noundef %7)
  store ptr %8, ptr %3, align 8, !tbaa !23
  %9 = load ptr, ptr %3, align 8, !tbaa !23
  %10 = call i64 @mbedtls_cipher_info_get_key_bitlen(ptr noundef %9)
  call void @llvm.lifetime.end.p0(i64 8, ptr %3) #5
  ret i64 %10
}