; Function Attrs: nounwind uwtable
define hidden range(i64 0, 961) i64 @mbedtls_ssl_ciphersuite_get_cipher_key_bitlen(ptr noundef readonly captures(none) %0) local_unnamed_addr #4 {
  %2 = getelementptr inbounds nuw i8, ptr %0, i64 16
  %3 = load i8, ptr %2, align 8, !tbaa !17
  %4 = zext i8 %3 to i32
  %5 = tail call ptr @mbedtls_cipher_info_from_type(i32 noundef %4) #8
  %6 = icmp eq ptr %5, null
  br i1 %6, label %mbedtls_cipher_info_get_key_bitlen.exit, label %7

7:                                                ; preds = %1
  %8 = getelementptr inbounds nuw i8, ptr %5, i64 8
  %9 = load i32, ptr %8, align 8
  %10 = lshr i32 %9, 2
  %11 = and i32 %10, 960
  %12 = zext nneg i32 %11 to i64
  br label %mbedtls_cipher_info_get_key_bitlen.exit

mbedtls_cipher_info_get_key_bitlen.exit:          ; preds = %1, %7
  %.0.i = phi i64 [ %12, %7 ], [ 0, %1 ]
  ret i64 %.0.i
}